target datalayout = "e-m:e-p270:32:32-p271:32:32-p272:64:64-i64:64-i128:128-f80:128-n8:16:32:64-S128"
target triple = "x86_64-pc-linux-gnu"

%struct.Mio_GateStruct_t_ = type { ptr, double, ptr, ptr, ptr, ptr, ptr, ptr, i32, i32, i32, i32, double, ptr, ptr, %union.anon, i32 }
%union.anon = type { i64 }

; Function Attrs: nounwind uwtable
define i64 @Mio_GateReadTruth(ptr noundef %0) #0 {
  %2 = alloca ptr, align 8
  store ptr %0, ptr %2, align 8, !tbaa !28
  %3 = load ptr, ptr %2, align 8, !tbaa !28
  %4 = getelementptr inbounds nuw %struct.Mio_GateStruct_t_, ptr %3, i32 0, i32 9
  %5 = load i32, ptr %4, align 4, !tbaa !56
  %6 = icmp sle i32 %5, 6
  br i1 %6, label %7, label %11

7:                                                ; preds = %1
  %8 = load ptr, ptr %2, align 8, !tbaa !28
  %9 = getelementptr inbounds nuw %struct.Mio_GateStruct_t_, ptr %8, i32 0, i32 15
  %10 = load i64, ptr %9, align 8, !tbaa !57
  br label %12

11:                                               ; preds = %1
  br label %12

12:                                               ; preds = %11, %7
  %13 = phi i64 [ %10, %7 ], [ 0, %11 ]
  ret i64 %13
}