; Function Attrs: mustprogress nofree norecurse nosync nounwind willreturn memory(argmem: read) uwtable
define i64 @Mio_GateReadTruth(ptr noundef readonly captures(none) %0) local_unnamed_addr #0 {
  %2 = getelementptr inbounds nuw i8, ptr %0, i64 68
  %3 = load i32, ptr %2, align 4, !tbaa !51
  %4 = icmp slt i32 %3, 7
  br i1 %4, label %5, label %8

5:                                                ; preds = %1
  %6 = getelementptr inbounds nuw i8, ptr %0, i64 104
  %7 = load i64, ptr %6, align 8, !tbaa !52
  br label %8

8:                                                ; preds = %1, %5
  %9 = phi i64 [ %7, %5 ], [ 0, %1 ]
  ret i64 %9
}